target datalayout = "e-m:e-p270:32:32-p271:32:32-p272:64:64-i64:64-i128:128-f80:128-n8:16:32:64-S128"
target triple = "x86_64-pc-linux-gnu"

%"struct.toku::range_buffer::record_header" = type { i8, i8, i8, i8, i16, i16, i8 }
%struct.__toku_dbt = type { ptr, i64, i64, i32 }
%"class.toku::range_buffer::iterator::record" = type { %"struct.toku::range_buffer::record_header", %struct.__toku_dbt, %struct.__toku_dbt }

; Function Attrs: mustprogress nounwind uwtable
define noundef i64 @_ZNK4toku12range_buffer8iterator6record4sizeEv(ptr noundef nonnull align 8 dereferenceable(80) %0) #0 align 2 {
  %2 = alloca ptr, align 8
  store ptr %0, ptr %2, align 8, !tbaa !28
  %3 = load ptr, ptr %2, align 8
  %4 = getelementptr inbounds nuw %"class.toku::range_buffer::iterator::record", ptr %3, i32 0, i32 0
  %5 = getelementptr inbounds nuw %"struct.toku::range_buffer::record_header", ptr %4, i32 0, i32 4
  %6 = load i16, ptr %5, align 4, !tbaa !35
  %7 = zext i16 %6 to i64
  %8 = add i64 10, %7
  %9 = getelementptr inbounds nuw %"class.toku::range_buffer::iterator::record", ptr %3, i32 0, i32 0
  %10 = getelementptr inbounds nuw %"struct.toku::range_buffer::record_header", ptr %9, i32 0, i32 5
  %11 = load i16, ptr %10, align 2, !tbaa !36
  %12 = zext i16 %11 to i64
  %13 = add i64 %8, %12
  ret i64 %13
}