; Function Attrs: mustprogress nofree norecurse nosync nounwind willreturn memory(argmem: read) uwtable
define noundef range(i64 10, 131081) i64 @_ZNK4toku12range_buffer8iterator6record4sizeEv(ptr noundef nonnull readonly align 8 captures(none) dereferenceable(80) %0) local_unnamed_addr #0 align 2 {
  %2 = getelementptr inbounds nuw i8, ptr %0, i64 4
  %3 = load i16, ptr %2, align 4, !tbaa !28
  %4 = zext i16 %3 to i64
  %5 = add nuw nsw i64 %4, 10
  %6 = getelementptr inbounds nuw i8, ptr %0, i64 6
  %7 = load i16, ptr %6, align 2, !tbaa !29
  %8 = zext i16 %7 to i64
  %9 = add nuw nsw i64 %5, %8
  ret i64 %9
}